target datalayout = "e-m:e-p270:32:32-p271:32:32-p272:64:64-i64:64-i128:128-f80:128-n8:16:32:64-S128"
target triple = "x86_64-pc-linux-gnu"

%struct.Abc_TgMan_t_ = type { ptr, i32, i32, i32, i32, i32, [16 x i8], [16 x i8], [16 x i8], [16 x i8], [16 x %struct.TiedGroup_], [16 x i8], [17 x i8], i32, [16 x i8], ptr }
%struct.TiedGroup_ = type { i8, i8 }

; Function Attrs: nounwind uwtable
define internal i32 @Abc_TgSplitGroup(ptr noundef %0, ptr noundef %1, ptr noundef %2) #0 {
  %4 = alloca i32, align 4
  %5 = alloca ptr, align 8
  %6 = alloca ptr, align 8
  %7 = alloca ptr, align 8
  %8 = alloca i32, align 4
  %9 = alloca i32, align 4
  %10 = alloca i32, align 4
  %11 = alloca i32, align 4
  %12 = alloca ptr, align 8
  %13 = alloca i32, align 4
  %14 = alloca i32, align 4
  %15 = alloca i8, align 1
  %16 = alloca i32, align 4
  store ptr %0, ptr %5, align 8, !tbaa !116
  store ptr %1, ptr %6, align 8, !tbaa !174
  store ptr %2, ptr %7, align 8, !tbaa !14
  call void @llvm.lifetime.start.p0(i64 4, ptr %8) #12
  call void @llvm.lifetime.start.p0(i64 4, ptr %9) #12
  call void @llvm.lifetime.start.p0(i64 4, ptr %10) #12
  store i32 0, ptr %10, align 4, !tbaa !8
  call void @llvm.lifetime.start.p0(i64 4, ptr %11) #12
  %17 = load ptr, ptr %6, align 8, !tbaa !174
  %18 = getelementptr inbounds nuw %struct.TiedGroup_, ptr %17, i32 0, i32 1
  %19 = load i8, ptr %18, align 1, !tbaa !130
  %20 = sext i8 %19 to i32
  store i32 %20, ptr %11, align 4, !tbaa !8
  call void @llvm.lifetime.start.p0(i64 8, ptr %12) #12
  %21 = load ptr, ptr %5, align 8, !tbaa !116
  %22 = getelementptr inbounds nuw %struct.Abc_TgMan_t_, ptr %21, i32 0, i32 6
  %23 = getelementptr inbounds [16 x i8], ptr %22, i64 0, i64 0
  %24 = load ptr, ptr %6, align 8, !tbaa !174
  %25 = getelementptr inbounds nuw %struct.TiedGroup_, ptr %24, i32 0, i32 0
  %26 = load i8, ptr %25, align 1, !tbaa !128
  %27 = sext i8 %26 to i32
  %28 = sext i32 %27 to i64
  %29 = getelementptr inbounds i8, ptr %23, i64 %28
  store ptr %29, ptr %12, align 8, !tbaa !49
  call void @llvm.lifetime.start.p0(i64 4, ptr %13) #12
  %30 = load ptr, ptr %6, align 8, !tbaa !174
  %31 = load ptr, ptr %5, align 8, !tbaa !116
  %32 = getelementptr inbounds nuw %struct.Abc_TgMan_t_, ptr %31, i32 0, i32 10
  %33 = getelementptr inbounds [16 x %struct.TiedGroup_], ptr %32, i64 0, i64 0
  %34 = ptrtoint ptr %30 to i64
  %35 = ptrtoint ptr %33 to i64
  %36 = sub i64 %34, %35
  %37 = sdiv exact i64 %36, 2
  %38 = trunc i64 %37 to i32
  store i32 %38, ptr %13, align 4, !tbaa !8
  store i32 1, ptr %8, align 4, !tbaa !8
  br label %39

39:                                               ; preds = %104, %3
  %40 = load i32, ptr %8, align 4, !tbaa !8
  %41 = load i32, ptr %11, align 4, !tbaa !8
  %42 = icmp slt i32 %40, %41
  br i1 %42, label %43, label %107

43:                                               ; preds = %39
  call void @llvm.lifetime.start.p0(i64 4, ptr %14) #12
  %44 = load ptr, ptr %7, align 8, !tbaa !14
  %45 = load i32, ptr %8, align 4, !tbaa !8
  %46 = sext i32 %45 to i64
  %47 = getelementptr inbounds i32, ptr %44, i64 %46
  %48 = load i32, ptr %47, align 4, !tbaa !8
  store i32 %48, ptr %14, align 4, !tbaa !8
  call void @llvm.lifetime.start.p0(i64 1, ptr %15) #12
  %49 = load ptr, ptr %12, align 8, !tbaa !49
  %50 = load i32, ptr %8, align 4, !tbaa !8
  %51 = sext i32 %50 to i64
  %52 = getelementptr inbounds i8, ptr %49, i64 %51
  %53 = load i8, ptr %52, align 1, !tbaa !51
  store i8 %53, ptr %15, align 1, !tbaa !51
  %54 = load i32, ptr %8, align 4, !tbaa !8
  store i32 %54, ptr %9, align 4, !tbaa !8
  br label %55

55:                                               ; preds = %90, %43
  %56 = load i32, ptr %9, align 4, !tbaa !8
  %57 = icmp sgt i32 %56, 0
  br i1 %57, label %58, label %67

58:                                               ; preds = %55
  %59 = load ptr, ptr %7, align 8, !tbaa !14
  %60 = load i32, ptr %9, align 4, !tbaa !8
  %61 = sub nsw i32 %60, 1
  %62 = sext i32 %61 to i64
  %63 = getelementptr inbounds i32, ptr %59, i64 %62
  %64 = load i32, ptr %63, align 4, !tbaa !8
  %65 = load i32, ptr %14, align 4, !tbaa !8
  %66 = icmp sgt i32 %64, %65
  br label %67

67:                                               ; preds = %58, %55
  %68 = phi i1 [ false, %55 ], [ %66, %58 ]
  br i1 %68, label %69, label %93

69:                                               ; preds = %67
  %70 = load ptr, ptr %7, align 8, !tbaa !14
  %71 = load i32, ptr %9, align 4, !tbaa !8
  %72 = sub nsw i32 %71, 1
  %73 = sext i32 %72 to i64
  %74 = getelementptr inbounds i32, ptr %70, i64 %73
  %75 = load i32, ptr %74, align 4, !tbaa !8
  %76 = load ptr, ptr %7, align 8, !tbaa !14
  %77 = load i32, ptr %9, align 4, !tbaa !8
  %78 = sext i32 %77 to i64
  %79 = getelementptr inbounds i32, ptr %76, i64 %78
  store i32 %75, ptr %79, align 4, !tbaa !8
  %80 = load ptr, ptr %12, align 8, !tbaa !49
  %81 = load i32, ptr %9, align 4, !tbaa !8
  %82 = sub nsw i32 %81, 1
  %83 = sext i32 %82 to i64
  %84 = getelementptr inbounds i8, ptr %80, i64 %83
  %85 = load i8, ptr %84, align 1, !tbaa !51
  %86 = load ptr, ptr %12, align 8, !tbaa !49
  %87 = load i32, ptr %9, align 4, !tbaa !8
  %88 = sext i32 %87 to i64
  %89 = getelementptr inbounds i8, ptr %86, i64 %88
  store i8 %85, ptr %89, align 1, !tbaa !51
  br label %90

90:                                               ; preds = %69
  %91 = load i32, ptr %9, align 4, !tbaa !8
  %92 = add nsw i32 %91, -1
  store i32 %92, ptr %9, align 4, !tbaa !8
  br label %55, !llvm.loop !176

93:                                               ; preds = %67
  %94 = load i32, ptr %14, align 4, !tbaa !8
  %95 = load ptr, ptr %7, align 8, !tbaa !14
  %96 = load i32, ptr %9, align 4, !tbaa !8
  %97 = sext i32 %96 to i64
  %98 = getelementptr inbounds i32, ptr %95, i64 %97
  store i32 %94, ptr %98, align 4, !tbaa !8
  %99 = load i8, ptr %15, align 1, !tbaa !51
  %100 = load ptr, ptr %12, align 8, !tbaa !49
  %101 = load i32, ptr %9, align 4, !tbaa !8
  %102 = sext i32 %101 to i64
  %103 = getelementptr inbounds i8, ptr %100, i64 %102
  store i8 %99, ptr %103, align 1, !tbaa !51
  call void @llvm.lifetime.end.p0(i64 1, ptr %15) #12
  call void @llvm.lifetime.end.p0(i64 4, ptr %14) #12
  br label %104

104:                                              ; preds = %93
  %105 = load i32, ptr %8, align 4, !tbaa !8
  %106 = add nsw i32 %105, 1
  store i32 %106, ptr %8, align 4, !tbaa !8
  br label %39, !llvm.loop !177

107:                                              ; preds = %39
  store i32 1, ptr %8, align 4, !tbaa !8
  br label %108

108:                                              ; preds = %129, %107
  %109 = load i32, ptr %8, align 4, !tbaa !8
  %110 = load i32, ptr %11, align 4, !tbaa !8
  %111 = icmp slt i32 %109, %110
  br i1 %111, label %112, label %132

112:                                              ; preds = %108
  %113 = load ptr, ptr %7, align 8, !tbaa !14
  %114 = load i32, ptr %8, align 4, !tbaa !8
  %115 = sext i32 %114 to i64
  %116 = getelementptr inbounds i32, ptr %113, i64 %115
  %117 = load i32, ptr %116, align 4, !tbaa !8
  %118 = load ptr, ptr %7, align 8, !tbaa !14
  %119 = load i32, ptr %8, align 4, !tbaa !8
  %120 = sub nsw i32 %119, 1
  %121 = sext i32 %120 to i64
  %122 = getelementptr inbounds i32, ptr %118, i64 %121
  %123 = load i32, ptr %122, align 4, !tbaa !8
  %124 = icmp ne i32 %117, %123
  br i1 %124, label %125, label %128

125:                                              ; preds = %112
  %126 = load i32, ptr %10, align 4, !tbaa !8
  %127 = add nsw i32 %126, 1
  store i32 %127, ptr %10, align 4, !tbaa !8
  br label %128

128:                                              ; preds = %125, %112
  br label %129

129:                                              ; preds = %128
  %130 = load i32, ptr %8, align 4, !tbaa !8
  %131 = add nsw i32 %130, 1
  store i32 %131, ptr %8, align 4, !tbaa !8
  br label %108, !llvm.loop !178

132:                                              ; preds = %108
  %133 = load i32, ptr %10, align 4, !tbaa !8
  %134 = icmp eq i32 %133, 0
  br i1 %134, label %135, label %136

135:                                              ; preds = %132
  store i32 0, ptr %4, align 4
  store i32 1, ptr %16, align 4
  br label %238

136:                                              ; preds = %132
  %137 = load ptr, ptr %6, align 8, !tbaa !174
  %138 = load i32, ptr %10, align 4, !tbaa !8
  %139 = sext i32 %138 to i64
  %140 = getelementptr inbounds %struct.TiedGroup_, ptr %137, i64 %139
  %141 = getelementptr inbounds %struct.TiedGroup_, ptr %140, i64 1
  %142 = load ptr, ptr %6, align 8, !tbaa !174
  %143 = getelementptr inbounds %struct.TiedGroup_, ptr %142, i64 1
  %144 = load ptr, ptr %5, align 8, !tbaa !116
  %145 = getelementptr inbounds nuw %struct.Abc_TgMan_t_, ptr %144, i32 0, i32 3
  %146 = load i32, ptr %145, align 8, !tbaa !127
  %147 = load i32, ptr %13, align 4, !tbaa !8
  %148 = sub nsw i32 %146, %147
  %149 = sub nsw i32 %148, 1
  %150 = sext i32 %149 to i64
  %151 = mul i64 %150, 2
  call void @llvm.memmove.p0.p0.i64(ptr align 1 %141, ptr align 1 %143, i64 %151, i1 false)
  store i32 1, ptr %9, align 4, !tbaa !8
  store i32 1, ptr %8, align 4, !tbaa !8
  br label %152

152:                                              ; preds = %208, %136
  %153 = load i32, ptr %8, align 4, !tbaa !8
  %154 = load i32, ptr %11, align 4, !tbaa !8
  %155 = icmp slt i32 %153, %154
  br i1 %155, label %156, label %211

156:                                              ; preds = %152
  %157 = load ptr, ptr %7, align 8, !tbaa !14
  %158 = load i32, ptr %8, align 4, !tbaa !8
  %159 = sext i32 %158 to i64
  %160 = getelementptr inbounds i32, ptr %157, i64 %159
  %161 = load i32, ptr %160, align 4, !tbaa !8
  %162 = load ptr, ptr %7, align 8, !tbaa !14
  %163 = load i32, ptr %8, align 4, !tbaa !8
  %164 = sub nsw i32 %163, 1
  %165 = sext i32 %164 to i64
  %166 = getelementptr inbounds i32, ptr %162, i64 %165
  %167 = load i32, ptr %166, align 4, !tbaa !8
  %168 = icmp eq i32 %161, %167
  br i1 %168, label %169, label %170

169:                                              ; preds = %156
  br label %208

170:                                              ; preds = %156
  %171 = load ptr, ptr %6, align 8, !tbaa !174
  %172 = getelementptr inbounds nuw %struct.TiedGroup_, ptr %171, i32 0, i32 0
  %173 = load i8, ptr %172, align 1, !tbaa !128
  %174 = sext i8 %173 to i32
  %175 = load i32, ptr %8, align 4, !tbaa !8
  %176 = add nsw i32 %174, %175
  %177 = trunc i32 %176 to i8
  %178 = load ptr, ptr %6, align 8, !tbaa !174
  %179 = load i32, ptr %9, align 4, !tbaa !8
  %180 = sext i32 %179 to i64
  %181 = getelementptr inbounds %struct.TiedGroup_, ptr %178, i64 %180
  %182 = getelementptr inbounds nuw %struct.TiedGroup_, ptr %181, i32 0, i32 0
  store i8 %177, ptr %182, align 1, !tbaa !128
  %183 = load ptr, ptr %6, align 8, !tbaa !174
  %184 = load i32, ptr %9, align 4, !tbaa !8
  %185 = sext i32 %184 to i64
  %186 = getelementptr inbounds %struct.TiedGroup_, ptr %183, i64 %185
  %187 = getelementptr inbounds nuw %struct.TiedGroup_, ptr %186, i32 0, i32 0
  %188 = load i8, ptr %187, align 1, !tbaa !128
  %189 = sext i8 %188 to i32
  %190 = load ptr, ptr %6, align 8, !tbaa !174
  %191 = load i32, ptr %9, align 4, !tbaa !8
  %192 = sub nsw i32 %191, 1
  %193 = sext i32 %192 to i64
  %194 = getelementptr inbounds %struct.TiedGroup_, ptr %190, i64 %193
  %195 = getelementptr inbounds nuw %struct.TiedGroup_, ptr %194, i32 0, i32 0
  %196 = load i8, ptr %195, align 1, !tbaa !128
  %197 = sext i8 %196 to i32
  %198 = sub nsw i32 %189, %197
  %199 = trunc i32 %198 to i8
  %200 = load ptr, ptr %6, align 8, !tbaa !174
  %201 = load i32, ptr %9, align 4, !tbaa !8
  %202 = sub nsw i32 %201, 1
  %203 = sext i32 %202 to i64
  %204 = getelementptr inbounds %struct.TiedGroup_, ptr %200, i64 %203
  %205 = getelementptr inbounds nuw %struct.TiedGroup_, ptr %204, i32 0, i32 1
  store i8 %199, ptr %205, align 1, !tbaa !130
  %206 = load i32, ptr %9, align 4, !tbaa !8
  %207 = add nsw i32 %206, 1
  store i32 %207, ptr %9, align 4, !tbaa !8
  br label %208

208:                                              ; preds = %170, %169
  %209 = load i32, ptr %8, align 4, !tbaa !8
  %210 = add nsw i32 %209, 1
  store i32 %210, ptr %8, align 4, !tbaa !8
  br label %152, !llvm.loop !179

211:                                              ; preds = %152
  %212 = load ptr, ptr %6, align 8, !tbaa !174
  %213 = getelementptr inbounds nuw %struct.TiedGroup_, ptr %212, i32 0, i32 0
  %214 = load i8, ptr %213, align 1, !tbaa !128
  %215 = sext i8 %214 to i32
  %216 = load i32, ptr %8, align 4, !tbaa !8
  %217 = add nsw i32 %215, %216
  %218 = load ptr, ptr %6, align 8, !tbaa !174
  %219 = load i32, ptr %10, align 4, !tbaa !8
  %220 = sext i32 %219 to i64
  %221 = getelementptr inbounds %struct.TiedGroup_, ptr %218, i64 %220
  %222 = getelementptr inbounds nuw %struct.TiedGroup_, ptr %221, i32 0, i32 0
  %223 = load i8, ptr %222, align 1, !tbaa !128
  %224 = sext i8 %223 to i32
  %225 = sub nsw i32 %217, %224
  %226 = trunc i32 %225 to i8
  %227 = load ptr, ptr %6, align 8, !tbaa !174
  %228 = load i32, ptr %10, align 4, !tbaa !8
  %229 = sext i32 %228 to i64
  %230 = getelementptr inbounds %struct.TiedGroup_, ptr %227, i64 %229
  %231 = getelementptr inbounds nuw %struct.TiedGroup_, ptr %230, i32 0, i32 1
  store i8 %226, ptr %231, align 1, !tbaa !130
  %232 = load i32, ptr %10, align 4, !tbaa !8
  %233 = load ptr, ptr %5, align 8, !tbaa !116
  %234 = getelementptr inbounds nuw %struct.Abc_TgMan_t_, ptr %233, i32 0, i32 3
  %235 = load i32, ptr %234, align 8, !tbaa !127
  %236 = add nsw i32 %235, %232
  store i32 %236, ptr %234, align 8, !tbaa !127
  %237 = load i32, ptr %10, align 4, !tbaa !8
  store i32 %237, ptr %4, align 4
  store i32 1, ptr %16, align 4
  br label %238

238:                                              ; preds = %211, %135
  call void @llvm.lifetime.end.p0(i64 4, ptr %13) #12
  call void @llvm.lifetime.end.p0(i64 8, ptr %12) #12
  call void @llvm.lifetime.end.p0(i64 4, ptr %11) #12
  call void @llvm.lifetime.end.p0(i64 4, ptr %10) #12
  call void @llvm.lifetime.end.p0(i64 4, ptr %9) #12
  call void @llvm.lifetime.end.p0(i64 4, ptr %8) #12
  %239 = load i32, ptr %4, align 4
  ret i32 %239
}