; Function Attrs: nofree norecurse nosync nounwind memory(argmem: readwrite) uwtable
define internal fastcc i32 @Abc_TgSplitGroup(ptr noundef nonnull %0, ptr noundef nonnull %1, ptr noundef nonnull captures(none) %2) unnamed_addr #0 {
  %4 = getelementptr inbounds nuw i8, ptr %1, i64 1
  %5 = load i8, ptr %4, align 1, !tbaa !123
  %6 = sext i8 %5 to i32
  %7 = getelementptr inbounds nuw i8, ptr %0, i64 28
  %8 = load i8, ptr %1, align 1, !tbaa !121
  %9 = sext i8 %8 to i64
  %10 = getelementptr inbounds i8, ptr %7, i64 %9
  %11 = getelementptr inbounds nuw i8, ptr %0, i64 92
  %12 = ptrtoint ptr %1 to i64
  %13 = ptrtoint ptr %11 to i64
  %14 = sub i64 %12, %13
  %15 = lshr exact i64 %14, 1
  %16 = trunc i64 %15 to i32
  %17 = icmp sgt i8 %5, 1
  br i1 %17, label %.lr.ph.preheader, label %._crit_edge.thread

.lr.ph.preheader:                                 ; preds = %3
  %wide.trip.count = zext nneg i32 %6 to i64
  br label %.lr.ph

.lr.ph85.preheader:                               ; preds = %.critedge
  %wide.trip.count99 = zext nneg i32 %6 to i64
  br label %.lr.ph85

.lr.ph:                                           ; preds = %.lr.ph.preheader, %.critedge
  %indvars.iv = phi i64 [ 1, %.lr.ph.preheader ], [ %indvars.iv.next, %.critedge ]
  %18 = getelementptr inbounds nuw i32, ptr %2, i64 %indvars.iv
  %19 = load i32, ptr %18, align 4, !tbaa !10
  %20 = getelementptr inbounds nuw i8, ptr %10, i64 %indvars.iv
  %21 = load i8, ptr %20, align 1, !tbaa !43
  br label %22

22:                                               ; preds = %.lr.ph, %26
  %indvars.iv92 = phi i64 [ %indvars.iv, %.lr.ph ], [ %indvars.iv.next93, %26 ]
  %indvars.iv.next93 = add nsw i64 %indvars.iv92, -1
  %23 = getelementptr inbounds nuw i32, ptr %2, i64 %indvars.iv.next93
  %24 = load i32, ptr %23, align 4, !tbaa !10
  %25 = icmp sgt i32 %24, %19
  br i1 %25, label %26, label %.critedge

26:                                               ; preds = %22
  %27 = getelementptr inbounds nuw i32, ptr %2, i64 %indvars.iv92
  store i32 %24, ptr %27, align 4, !tbaa !10
  %28 = getelementptr inbounds nuw i8, ptr %10, i64 %indvars.iv.next93
  %29 = load i8, ptr %28, align 1, !tbaa !43
  %30 = getelementptr inbounds nuw i8, ptr %10, i64 %indvars.iv92
  store i8 %29, ptr %30, align 1, !tbaa !43
  %31 = icmp sgt i64 %indvars.iv92, 1
  br i1 %31, label %22, label %.critedge, !llvm.loop !177

.critedge:                                        ; preds = %26, %22
  %.074.lcssa = phi i64 [ 0, %26 ], [ %indvars.iv92, %22 ]
  %sext = shl i64 %.074.lcssa, 32
  %32 = ashr exact i64 %sext, 32
  %33 = getelementptr inbounds i32, ptr %2, i64 %32
  store i32 %19, ptr %33, align 4, !tbaa !10
  %34 = getelementptr inbounds i8, ptr %10, i64 %32
  store i8 %21, ptr %34, align 1, !tbaa !43
  %indvars.iv.next = add nuw nsw i64 %indvars.iv, 1
  %exitcond.not = icmp eq i64 %indvars.iv.next, %wide.trip.count
  br i1 %exitcond.not, label %.lr.ph85.preheader, label %.lr.ph, !llvm.loop !178

.lr.ph85:                                         ; preds = %.lr.ph85.preheader, %.lr.ph85
  %indvars.iv96 = phi i64 [ 1, %.lr.ph85.preheader ], [ %indvars.iv.next97, %.lr.ph85 ]
  %.07783 = phi i32 [ 0, %.lr.ph85.preheader ], [ %spec.select, %.lr.ph85 ]
  %35 = getelementptr inbounds nuw i32, ptr %2, i64 %indvars.iv96
  %36 = load i32, ptr %35, align 4, !tbaa !10
  %37 = getelementptr i8, ptr %35, i64 -4
  %38 = load i32, ptr %37, align 4, !tbaa !10
  %.not = icmp ne i32 %36, %38
  %39 = zext i1 %.not to i32
  %spec.select = add nuw nsw i32 %.07783, %39
  %indvars.iv.next97 = add nuw nsw i64 %indvars.iv96, 1
  %exitcond100.not = icmp eq i64 %indvars.iv.next97, %wide.trip.count99
  br i1 %exitcond100.not, label %._crit_edge, label %.lr.ph85, !llvm.loop !179

._crit_edge:                                      ; preds = %.lr.ph85
  %40 = icmp eq i32 %spec.select, 0
  br i1 %40, label %._crit_edge.thread, label %.lr.ph89.preheader

.lr.ph89.preheader:                               ; preds = %._crit_edge
  %41 = zext nneg i32 %spec.select to i64
  %42 = getelementptr inbounds nuw %struct.TiedGroup_, ptr %1, i64 %41
  %43 = getelementptr inbounds nuw i8, ptr %42, i64 2
  %44 = getelementptr inbounds nuw i8, ptr %1, i64 2
  %45 = getelementptr inbounds nuw i8, ptr %0, i64 16
  %46 = load i32, ptr %45, align 8, !tbaa !120
  %47 = xor i32 %16, -1
  %48 = add i32 %46, %47
  %49 = sext i32 %48 to i64
  %50 = shl nsw i64 %49, 1
  tail call void @llvm.memmove.p0.p0.i64(ptr nonnull align 1 %43, ptr nonnull align 1 %44, i64 %50, i1 false)
  %wide.trip.count104 = zext nneg i32 %6 to i64
  br label %.lr.ph89

.lr.ph89:                                         ; preds = %.lr.ph89.preheader, %67
  %indvars.iv101 = phi i64 [ 1, %.lr.ph89.preheader ], [ %indvars.iv.next102, %67 ]
  %.17586 = phi i32 [ 1, %.lr.ph89.preheader ], [ %.276, %67 ]
  %51 = getelementptr inbounds nuw i32, ptr %2, i64 %indvars.iv101
  %52 = load i32, ptr %51, align 4, !tbaa !10
  %53 = getelementptr i8, ptr %51, i64 -4
  %54 = load i32, ptr %53, align 4, !tbaa !10
  %55 = icmp eq i32 %52, %54
  br i1 %55, label %67, label %56

56:                                               ; preds = %.lr.ph89
  %57 = load i8, ptr %1, align 1, !tbaa !121
  %58 = trunc i64 %indvars.iv101 to i8
  %59 = add i8 %57, %58
  %60 = sext i32 %.17586 to i64
  %61 = getelementptr inbounds %struct.TiedGroup_, ptr %1, i64 %60
  store i8 %59, ptr %61, align 1, !tbaa !121
  %62 = getelementptr i8, ptr %61, i64 -2
  %63 = load i8, ptr %62, align 1, !tbaa !121
  %64 = sub i8 %59, %63
  %65 = getelementptr i8, ptr %61, i64 -1
  store i8 %64, ptr %65, align 1, !tbaa !123
  %66 = add nsw i32 %.17586, 1
  br label %67

67:                                               ; preds = %.lr.ph89, %56
  %.276 = phi i32 [ %.17586, %.lr.ph89 ], [ %66, %56 ]
  %indvars.iv.next102 = add nuw nsw i64 %indvars.iv101, 1
  %exitcond105.not = icmp eq i64 %indvars.iv.next102, %wide.trip.count104
  br i1 %exitcond105.not, label %._crit_edge90, label %.lr.ph89, !llvm.loop !180

._crit_edge90:                                    ; preds = %67
  %68 = load i8, ptr %1, align 1, !tbaa !121
  %69 = load i8, ptr %42, align 1, !tbaa !121
  %70 = add i8 %68, %5
  %71 = sub i8 %70, %69
  %72 = getelementptr inbounds nuw i8, ptr %42, i64 1
  store i8 %71, ptr %72, align 1, !tbaa !123
  %73 = load i32, ptr %45, align 8, !tbaa !120
  %74 = add nsw i32 %73, %spec.select
  store i32 %74, ptr %45, align 8, !tbaa !120
  br label %._crit_edge.thread

._crit_edge.thread:                               ; preds = %3, %._crit_edge, %._crit_edge90
  %.077.lcssa107 = phi i32 [ 0, %._crit_edge ], [ %spec.select, %._crit_edge90 ], [ 0, %3 ]
  ret i32 %.077.lcssa107
}